target datalayout = "e-m:e-p270:32:32-p271:32:32-p272:64:64-i64:64-i128:128-f80:128-n8:16:32:64-S128"
target triple = "x86_64-pc-linux-gnu"

%struct.pdf_struct = type { ptr, i32, i32, i32, i32, i32, ptr, i64, ptr, i64, i64, i64, ptr, ptr, i32, i32, ptr, i32, ptr, i32, %struct.pdf_stats, ptr, i32, i32 }
%struct.pdf_stats = type { i32, i32, i32, i32, i32, i32, i32, i32, i32, i32, i32, i32, i32, i32, i32, i32, i32, i32, i32, i32, i32, i32, i32, i32, i32, ptr, ptr, ptr, ptr, ptr, ptr, ptr, ptr }
%struct.pdf_obj = type { i32, i64, i32, i32, i32, i32, [64 x i32], ptr, i64, ptr, ptr, i8 }

; Function Attrs: nounwind uwtable
define ptr @find_obj(ptr noundef %0, ptr noundef %1, i32 noundef %2) #0 {
  %4 = alloca ptr, align 8
  %5 = alloca ptr, align 8
  %6 = alloca ptr, align 8
  %7 = alloca i32, align 4
  %8 = alloca i32, align 4
  %9 = alloca i32, align 4
  store ptr %0, ptr %5, align 8
  store ptr %1, ptr %6, align 8
  store i32 %2, ptr %7, align 4
  store i32 0, ptr %9, align 4
  br label %10

10:                                               ; preds = %28, %3
  %11 = load i32, ptr %9, align 4
  %12 = load ptr, ptr %5, align 8
  %13 = getelementptr inbounds %struct.pdf_struct, ptr %12, i32 0, i32 1
  %14 = load i32, ptr %13, align 8
  %15 = icmp ult i32 %11, %14
  br i1 %15, label %16, label %31

16:                                               ; preds = %10
  %17 = load ptr, ptr %5, align 8
  %18 = getelementptr inbounds %struct.pdf_struct, ptr %17, i32 0, i32 0
  %19 = load ptr, ptr %18, align 8
  %20 = load i32, ptr %9, align 4
  %21 = zext i32 %20 to i64
  %22 = getelementptr inbounds ptr, ptr %19, i64 %21
  %23 = load ptr, ptr %22, align 8
  %24 = load ptr, ptr %6, align 8
  %25 = icmp eq ptr %23, %24
  br i1 %25, label %26, label %27

26:                                               ; preds = %16
  br label %31

27:                                               ; preds = %16
  br label %28

28:                                               ; preds = %27
  %29 = load i32, ptr %9, align 4
  %30 = add i32 %29, 1
  store i32 %30, ptr %9, align 4
  br label %10

31:                                               ; preds = %26, %10
  %32 = load i32, ptr %9, align 4
  store i32 %32, ptr %8, align 4
  br label %33

33:                                               ; preds = %55, %31
  %34 = load i32, ptr %8, align 4
  %35 = load ptr, ptr %5, align 8
  %36 = getelementptr inbounds %struct.pdf_struct, ptr %35, i32 0, i32 1
  %37 = load i32, ptr %36, align 8
  %38 = icmp ult i32 %34, %37
  br i1 %38, label %39, label %58

39:                                               ; preds = %33
  %40 = load ptr, ptr %5, align 8
  %41 = getelementptr inbounds %struct.pdf_struct, ptr %40, i32 0, i32 0
  %42 = load ptr, ptr %41, align 8
  %43 = load i32, ptr %8, align 4
  %44 = zext i32 %43 to i64
  %45 = getelementptr inbounds ptr, ptr %42, i64 %44
  %46 = load ptr, ptr %45, align 8
  store ptr %46, ptr %6, align 8
  %47 = load ptr, ptr %6, align 8
  %48 = getelementptr inbounds %struct.pdf_obj, ptr %47, i32 0, i32 2
  %49 = load i32, ptr %48, align 8
  %50 = load i32, ptr %7, align 4
  %51 = icmp eq i32 %49, %50
  br i1 %51, label %52, label %54

52:                                               ; preds = %39
  %53 = load ptr, ptr %6, align 8
  store ptr %53, ptr %4, align 8
  br label %83

54:                                               ; preds = %39
  br label %55

55:                                               ; preds = %54
  %56 = load i32, ptr %8, align 4
  %57 = add i32 %56, 1
  store i32 %57, ptr %8, align 4
  br label %33

58:                                               ; preds = %33
  store i32 0, ptr %8, align 4
  br label %59

59:                                               ; preds = %79, %58
  %60 = load i32, ptr %8, align 4
  %61 = load i32, ptr %9, align 4
  %62 = icmp ult i32 %60, %61
  br i1 %62, label %63, label %82

63:                                               ; preds = %59
  %64 = load ptr, ptr %5, align 8
  %65 = getelementptr inbounds %struct.pdf_struct, ptr %64, i32 0, i32 0
  %66 = load ptr, ptr %65, align 8
  %67 = load i32, ptr %8, align 4
  %68 = zext i32 %67 to i64
  %69 = getelementptr inbounds ptr, ptr %66, i64 %68
  %70 = load ptr, ptr %69, align 8
  store ptr %70, ptr %6, align 8
  %71 = load ptr, ptr %6, align 8
  %72 = getelementptr inbounds %struct.pdf_obj, ptr %71, i32 0, i32 2
  %73 = load i32, ptr %72, align 8
  %74 = load i32, ptr %7, align 4
  %75 = icmp eq i32 %73, %74
  br i1 %75, label %76, label %78

76:                                               ; preds = %63
  %77 = load ptr, ptr %6, align 8
  store ptr %77, ptr %4, align 8
  br label %83

78:                                               ; preds = %63
  br label %79

79:                                               ; preds = %78
  %80 = load i32, ptr %8, align 4
  %81 = add i32 %80, 1
  store i32 %81, ptr %8, align 4
  br label %59

82:                                               ; preds = %59
  store ptr null, ptr %4, align 8
  br label %83

83:                                               ; preds = %82, %76, %52
  %84 = load ptr, ptr %4, align 8
  ret ptr %84
}