; Function Attrs: nofree norecurse nosync nounwind memory(read, inaccessiblemem: none) uwtable
define ptr @find_obj(ptr nocapture noundef readonly %0, ptr noundef readnone %1, i32 noundef %2) local_unnamed_addr #8 {
  %4 = getelementptr inbounds i8, ptr %0, i64 8
  %5 = load i32, ptr %4, align 8
  %.not = icmp eq i32 %5, 0
  br i1 %.not, label %._crit_edge, label %.lr.ph

.lr.ph:                                           ; preds = %3
  %6 = load ptr, ptr %0, align 8
  %wide.trip.count = zext i32 %5 to i64
  br label %7

7:                                                ; preds = %.lr.ph, %11
  %indvars.iv = phi i64 [ 0, %.lr.ph ], [ %indvars.iv.next, %11 ]
  %8 = getelementptr inbounds ptr, ptr %6, i64 %indvars.iv
  %9 = load ptr, ptr %8, align 8
  %10 = icmp eq ptr %9, %1
  br i1 %10, label %._crit_edge.loopexit, label %11

11:                                               ; preds = %7
  %indvars.iv.next = add nuw nsw i64 %indvars.iv, 1
  %exitcond.not = icmp eq i64 %indvars.iv.next, %wide.trip.count
  br i1 %exitcond.not, label %.preheader, label %7

._crit_edge.loopexit:                             ; preds = %7
  %12 = trunc nuw i64 %indvars.iv to i32
  br label %._crit_edge

._crit_edge:                                      ; preds = %._crit_edge.loopexit, %3
  %.0.lcssa = phi i32 [ 0, %3 ], [ %12, %._crit_edge.loopexit ]
  %13 = icmp ult i32 %.0.lcssa, %5
  br i1 %13, label %.lr.ph34, label %.preheader

.lr.ph34:                                         ; preds = %._crit_edge
  %14 = load ptr, ptr %0, align 8
  %15 = zext i32 %.0.lcssa to i64
  br label %18

16:                                               ; preds = %18
  %indvars.iv.next45 = add nuw nsw i64 %indvars.iv44, 1
  %lftr.wideiv = trunc i64 %indvars.iv.next45 to i32
  %exitcond47.not = icmp eq i32 %5, %lftr.wideiv
  br i1 %exitcond47.not, label %.preheader, label %18

.preheader:                                       ; preds = %11, %16, %._crit_edge
  %.0.lcssa54 = phi i32 [ %.0.lcssa, %._crit_edge ], [ %.0.lcssa, %16 ], [ %5, %11 ]
  %.not40 = icmp eq i32 %.0.lcssa54, 0
  br i1 %.not40, label %.loopexit, label %.lr.ph36

.lr.ph36:                                         ; preds = %.preheader
  %17 = load ptr, ptr %0, align 8
  %wide.trip.count51 = zext i32 %.0.lcssa54 to i64
  br label %25

18:                                               ; preds = %.lr.ph34, %16
  %indvars.iv44 = phi i64 [ %15, %.lr.ph34 ], [ %indvars.iv.next45, %16 ]
  %19 = getelementptr inbounds ptr, ptr %14, i64 %indvars.iv44
  %20 = load ptr, ptr %19, align 8
  %21 = getelementptr inbounds i8, ptr %20, i64 16
  %22 = load i32, ptr %21, align 8
  %23 = icmp eq i32 %22, %2
  br i1 %23, label %.loopexit, label %16

24:                                               ; preds = %25
  %indvars.iv.next49 = add nuw nsw i64 %indvars.iv48, 1
  %exitcond52.not = icmp eq i64 %indvars.iv.next49, %wide.trip.count51
  br i1 %exitcond52.not, label %.loopexit, label %25

25:                                               ; preds = %.lr.ph36, %24
  %indvars.iv48 = phi i64 [ 0, %.lr.ph36 ], [ %indvars.iv.next49, %24 ]
  %26 = getelementptr inbounds ptr, ptr %17, i64 %indvars.iv48
  %27 = load ptr, ptr %26, align 8
  %28 = getelementptr inbounds i8, ptr %27, i64 16
  %29 = load i32, ptr %28, align 8
  %30 = icmp eq i32 %29, %2
  br i1 %30, label %.loopexit, label %24

.loopexit:                                        ; preds = %18, %25, %24, %.preheader
  %.024 = phi ptr [ null, %.preheader ], [ %27, %25 ], [ null, %24 ], [ %20, %18 ]
  ret ptr %.024
}